; Function Attrs: mustprogress nofree norecurse nosync nounwind willreturn memory(argmem: write) uwtable
define internal noundef zeroext i1 @_ZNSt17_Function_handlerIFvmSt8functionIFvmEEEZNK12_GLOBAL__N_117GFluidBackendImpl7compileERKN3ade5GraphERKSt6vectorIN2cv11GCompileArgESaISC_EERKSA_INS6_6HandleINS6_4NodeEEESaISJ_EEEUlmS2_E_E10_M_managerERSt9_Any_dataRKSQ_St18_Manager_operation(ptr noundef nonnull writeonly align 8 captures(none) dereferenceable(16) %0, ptr noundef nonnull align 8 dereferenceable(16) %1, i32 noundef %2) #26 align 2 personality ptr @__gxx_personality_v0 {
  switch i32 %2, label %_ZNSt14_Function_base13_Base_managerIZNK12_GLOBAL__N_117GFluidBackendImpl7compileERKN3ade5GraphERKSt6vectorIN2cv11GCompileArgESaIS9_EERKS7_INS3_6HandleINS3_4NodeEEESaISG_EEEUlmSt8functionIFvmEEE_E10_M_managerERSt9_Any_dataRKSQ_St18_Manager_operation.exit [
    i32 0, label %_ZNSt14_Function_base13_Base_managerIZNK12_GLOBAL__N_117GFluidBackendImpl7compileERKN3ade5GraphERKSt6vectorIN2cv11GCompileArgESaIS9_EERKS7_INS3_6HandleINS3_4NodeEEESaISG_EEEUlmSt8functionIFvmEEE_E10_M_managerERSt9_Any_dataRKSQ_St18_Manager_operation.exit.sink.split
    i32 1, label %4
  ]

4:                                                ; preds = %3
  br label %_ZNSt14_Function_base13_Base_managerIZNK12_GLOBAL__N_117GFluidBackendImpl7compileERKN3ade5GraphERKSt6vectorIN2cv11GCompileArgESaIS9_EERKS7_INS3_6HandleINS3_4NodeEEESaISG_EEEUlmSt8functionIFvmEEE_E10_M_managerERSt9_Any_dataRKSQ_St18_Manager_operation.exit.sink.split

_ZNSt14_Function_base13_Base_managerIZNK12_GLOBAL__N_117GFluidBackendImpl7compileERKN3ade5GraphERKSt6vectorIN2cv11GCompileArgESaIS9_EERKS7_INS3_6HandleINS3_4NodeEEESaISG_EEEUlmSt8functionIFvmEEE_E10_M_managerERSt9_Any_dataRKSQ_St18_Manager_operation.exit.sink.split: ; preds = %3, %4
  %.sink = phi ptr [ %1, %4 ], [ @_ZTIZNK12_GLOBAL__N_117GFluidBackendImpl7compileERKN3ade5GraphERKSt6vectorIN2cv11GCompileArgESaIS7_EERKS5_INS1_6HandleINS1_4NodeEEESaISE_EEEUlmSt8functionIFvmEEE_, %3 ]
  store ptr %.sink, ptr %0, align 8, !tbaa !39
  br label %_ZNSt14_Function_base13_Base_managerIZNK12_GLOBAL__N_117GFluidBackendImpl7compileERKN3ade5GraphERKSt6vectorIN2cv11GCompileArgESaIS9_EERKS7_INS3_6HandleINS3_4NodeEEESaISG_EEEUlmSt8functionIFvmEEE_E10_M_managerERSt9_Any_dataRKSQ_St18_Manager_operation.exit

_ZNSt14_Function_base13_Base_managerIZNK12_GLOBAL__N_117GFluidBackendImpl7compileERKN3ade5GraphERKSt6vectorIN2cv11GCompileArgESaIS9_EERKS7_INS3_6HandleINS3_4NodeEEESaISG_EEEUlmSt8functionIFvmEEE_E10_M_managerERSt9_Any_dataRKSQ_St18_Manager_operation.exit: ; preds = %_ZNSt14_Function_base13_Base_managerIZNK12_GLOBAL__N_117GFluidBackendImpl7compileERKN3ade5GraphERKSt6vectorIN2cv11GCompileArgESaIS9_EERKS7_INS3_6HandleINS3_4NodeEEESaISG_EEEUlmSt8functionIFvmEEE_E10_M_managerERSt9_Any_dataRKSQ_St18_Manager_operation.exit.sink.split, %3
  ret i1 false
}